target datalayout = "e-m:e-p270:32:32-p271:32:32-p272:64:64-i64:64-i128:128-f80:128-n8:16:32:64-S128"
target triple = "x86_64-pc-linux-gnu"

%"class.boost::urls::detail::path_ref" = type { ptr, ptr, i64, i64, i64 }
%"class.boost::urls::segments_ref" = type { %"class.boost::urls::segments_base", ptr }
%"class.boost::urls::segments_base" = type { %"class.boost::urls::detail::path_ref" }
%"class.boost::urls::segments_base::iterator" = type { %"struct.boost::urls::detail::segments_iter_impl" }
%"struct.boost::urls::detail::segments_iter_impl" = type { [8 x i8], %"class.boost::urls::detail::path_ref", i64, i64, i64, i64, %"class.boost::urls::pct_string_view" }
%"class.boost::urls::pct_string_view" = type { %"class.boost::urls::grammar::string_view_base", i64 }
%"class.boost::urls::grammar::string_view_base" = type { %"class.boost::core::basic_string_view" }
%"class.boost::core::basic_string_view" = type { ptr, i64 }
%"struct.boost::urls::detail::any_segments_iter.base" = type <{ ptr, %"class.boost::core::basic_string_view", %"class.boost::core::basic_string_view", i32, i8 }>
%"struct.boost::urls::detail::segment_iter" = type { %"struct.boost::urls::detail::any_segments_iter.base", i8, [2 x i8] }

; Function Attrs: mustprogress nounwind uwtable
define linkonce_odr hidden noundef nonnull align 8 dereferenceable(104) ptr @_ZN5boost4urls13segments_base8iteratormmEv(ptr noundef nonnull align 8 dereferenceable(104) %0) #2 comdat align 2 {
  %2 = alloca ptr, align 8
  store ptr %0, ptr %2, align 8, !tbaa !3
  %3 = load ptr, ptr %2, align 8
  %4 = getelementptr inbounds nuw %"class.boost::urls::segments_base::iterator", ptr %3, i32 0, i32 0
  call void @_ZN5boost4urls6detail18segments_iter_impl9decrementEv(ptr noundef nonnull align 8 dereferenceable(104) %4) #11
  ret ptr %3
}

; Function Attrs: mustprogress nounwind uwtable
define linkonce_odr hidden noundef nonnull align 8 dereferenceable(104) ptr @_ZN5boost4urls13segments_base8iteratorppEv(ptr noundef nonnull align 8 dereferenceable(104) %0) #2 comdat align 2 {
  %2 = alloca ptr, align 8
  store ptr %0, ptr %2, align 8, !tbaa !3
  %3 = load ptr, ptr %2, align 8
  %4 = getelementptr inbounds nuw %"class.boost::urls::segments_base::iterator", ptr %3, i32 0, i32 0
  call void @_ZN5boost4urls6detail18segments_iter_impl9incrementEv(ptr noundef nonnull align 8 dereferenceable(104) %4) #11
  ret ptr %3
}

; Function Attrs: inlinehint mustprogress nounwind uwtable
define linkonce_odr hidden void @_ZSt9__advanceIN5boost4urls13segments_base8iteratorElEvRT_T0_St26bidirectional_iterator_tag(ptr noundef nonnull align 8 dereferenceable(104) %0, i64 noundef %1) #8 comdat {
  %3 = alloca ptr, align 8
  %4 = alloca i64, align 8
  store ptr %0, ptr %3, align 8, !tbaa !3
  store i64 %1, ptr %4, align 8, !tbaa !17
  %5 = load i64, ptr %4, align 8, !tbaa !17
  %6 = icmp sgt i64 %5, 0
  br i1 %6, label %7, label %16

7:                                                ; preds = %2
  br label %8

8:                                                ; preds = %12, %7
  %9 = load i64, ptr %4, align 8, !tbaa !17
  %10 = add nsw i64 %9, -1
  store i64 %10, ptr %4, align 8, !tbaa !17
  %11 = icmp ne i64 %9, 0
  br i1 %11, label %12, label %15

12:                                               ; preds = %8
  %13 = load ptr, ptr %3, align 8, !tbaa !3
  %14 = call noundef nonnull align 8 dereferenceable(104) ptr @_ZN5boost4urls13segments_base8iteratorppEv(ptr noundef nonnull align 8 dereferenceable(104) %13) #11
  br label %8, !llvm.loop !22

15:                                               ; preds = %8
  br label %25

16:                                               ; preds = %2
  br label %17

17:                                               ; preds = %21, %16
  %18 = load i64, ptr %4, align 8, !tbaa !17
  %19 = add nsw i64 %18, 1
  store i64 %19, ptr %4, align 8, !tbaa !17
  %20 = icmp ne i64 %18, 0
  br i1 %20, label %21, label %24

21:                                               ; preds = %17
  %22 = load ptr, ptr %3, align 8, !tbaa !3
  %23 = call noundef nonnull align 8 dereferenceable(104) ptr @_ZN5boost4urls13segments_base8iteratormmEv(ptr noundef nonnull align 8 dereferenceable(104) %22) #11
  br label %17, !llvm.loop !24

24:                                               ; preds = %17
  br label %25

25:                                               ; preds = %24, %15
  ret void
}

; Function Attrs: inlinehint mustprogress nounwind uwtable
define linkonce_odr hidden void @_ZSt19__iterator_categoryIN5boost4urls13segments_base8iteratorEENSt15iterator_traitsIT_E17iterator_categoryERKS5_(ptr noundef nonnull align 8 dereferenceable(104) %0) #8 comdat {
  %2 = alloca ptr, align 8
  store ptr %0, ptr %2, align 8, !tbaa !3
  ret void
}

; Function Attrs: inlinehint mustprogress uwtable
define linkonce_odr hidden void @_ZSt7advanceIN5boost4urls13segments_base8iteratorElEvRT_T0_(ptr noundef nonnull align 8 dereferenceable(104) %0, i64 noundef %1) #7 comdat {
  %3 = alloca ptr, align 8
  %4 = alloca i64, align 8
  %5 = alloca i64, align 8
  store ptr %0, ptr %3, align 8, !tbaa !3
  store i64 %1, ptr %4, align 8, !tbaa !17
  call void @llvm.lifetime.start.p0(i64 8, ptr %5) #11
  %6 = load i64, ptr %4, align 8, !tbaa !17
  store i64 %6, ptr %5, align 8, !tbaa !17
  %7 = load ptr, ptr %3, align 8, !tbaa !3
  %8 = load i64, ptr %5, align 8, !tbaa !17
  %9 = load ptr, ptr %3, align 8, !tbaa !3
  call void @_ZSt19__iterator_categoryIN5boost4urls13segments_base8iteratorEENSt15iterator_traitsIT_E17iterator_categoryERKS5_(ptr noundef nonnull align 8 dereferenceable(104) %9)
  call void @_ZSt9__advanceIN5boost4urls13segments_base8iteratorElEvRT_T0_St26bidirectional_iterator_tag(ptr noundef nonnull align 8 dereferenceable(104) %7, i64 noundef %8)
  call void @llvm.lifetime.end.p0(i64 8, ptr %5) #11
  ret void
}

; Function Attrs: mustprogress nounwind uwtable
define linkonce_odr hidden void @_ZN5boost4urls6detail17any_segments_iterD2Ev(ptr noundef nonnull align 8 dereferenceable(45) %0) unnamed_addr #2 comdat align 2 {
  %2 = alloca ptr, align 8
  store ptr %0, ptr %2, align 8, !tbaa !3
  ret void
}

; Function Attrs: mustprogress nounwind uwtable
define linkonce_odr hidden void @_ZN5boost4urls13segments_base8iteratorC2ERKNS0_6detail18segments_iter_implE(ptr noundef nonnull align 8 dereferenceable(104) %0, ptr noundef nonnull align 8 dereferenceable(104) %1) unnamed_addr #2 comdat align 2 {
  %3 = alloca ptr, align 8
  %4 = alloca ptr, align 8
  store ptr %0, ptr %3, align 8, !tbaa !3
  store ptr %1, ptr %4, align 8, !tbaa !3
  %5 = load ptr, ptr %3, align 8
  %6 = getelementptr inbounds nuw %"class.boost::urls::segments_base::iterator", ptr %5, i32 0, i32 0
  %7 = load ptr, ptr %4, align 8, !tbaa !3
  call void @llvm.memcpy.p0.p0.i64(ptr align 8 %6, ptr align 8 %7, i64 104, i1 false)
  ret void
}

; Function Attrs: inlinehint mustprogress uwtable
define linkonce_odr hidden void @_ZSt4nextIN5boost4urls13segments_base8iteratorEET_S4_NSt15iterator_traitsIS4_E15difference_typeE(ptr dead_on_unwind noalias writable sret(%"class.boost::urls::segments_base::iterator") align 8 %0, ptr noundef byval(%"class.boost::urls::segments_base::iterator") align 8 %1, i64 noundef %2) #7 comdat {
  %4 = alloca i64, align 8
  store i64 %2, ptr %4, align 8, !tbaa !17
  %5 = load i64, ptr %4, align 8, !tbaa !17
  call void @_ZSt7advanceIN5boost4urls13segments_base8iteratorElEvRT_T0_(ptr noundef nonnull align 8 dereferenceable(104) %1, i64 noundef %5)
  call void @llvm.memcpy.p0.p0.i64(ptr align 8 %0, ptr align 8 %1, i64 104, i1 false)
  ret void
}

; Function Attrs: mustprogress uwtable
define void @_ZN5boost4urls12segments_ref7replaceENS0_13segments_base8iteratorENS_4core17basic_string_viewIcEE(ptr dead_on_unwind noalias writable sret(%"class.boost::urls::segments_base::iterator") align 8 %0, ptr noundef nonnull align 8 dereferenceable(48) %1, ptr noundef byval(%"class.boost::urls::segments_base::iterator") align 8 %2, ptr %3, i64 %4) #4 align 2 personality ptr @__gxx_personality_v0 {
  %6 = alloca %"class.boost::core::basic_string_view", align 8
  %7 = alloca ptr, align 8
  %8 = alloca %"struct.boost::urls::detail::segments_iter_impl", align 8
  %9 = alloca %"class.boost::urls::segments_base::iterator", align 8
  %10 = alloca %"class.boost::urls::segments_base::iterator", align 8
  %11 = alloca %"struct.boost::urls::detail::segment_iter", align 8
  %12 = alloca %"class.boost::core::basic_string_view", align 8
  %13 = alloca ptr, align 8
  %14 = alloca i32, align 4
  %15 = getelementptr inbounds nuw { ptr, i64 }, ptr %6, i32 0, i32 0
  store ptr %3, ptr %15, align 8
  %16 = getelementptr inbounds nuw { ptr, i64 }, ptr %6, i32 0, i32 1
  store i64 %4, ptr %16, align 8
  store ptr %1, ptr %7, align 8, !tbaa !3
  %17 = load ptr, ptr %7, align 8
  call void @llvm.lifetime.start.p0(i64 104, ptr %8) #11
  %18 = getelementptr inbounds nuw %"class.boost::urls::segments_ref", ptr %17, i32 0, i32 1
  %19 = load ptr, ptr %18, align 8, !tbaa !7
  %20 = getelementptr inbounds nuw %"class.boost::urls::segments_base::iterator", ptr %2, i32 0, i32 0
  call void @llvm.lifetime.start.p0(i64 104, ptr %9) #11
  call void @llvm.memcpy.p0.p0.i64(ptr align 8 %10, ptr align 8 %2, i64 104, i1 false)
  call void @_ZSt4nextIN5boost4urls13segments_base8iteratorEET_S4_NSt15iterator_traitsIS4_E15difference_typeE(ptr dead_on_unwind writable sret(%"class.boost::urls::segments_base::iterator") align 8 %9, ptr noundef byval(%"class.boost::urls::segments_base::iterator") align 8 %10, i64 noundef 1)
  %21 = getelementptr inbounds nuw %"class.boost::urls::segments_base::iterator", ptr %9, i32 0, i32 0
  call void @llvm.lifetime.start.p0(i64 48, ptr %11) #11
  call void @llvm.memcpy.p0.p0.i64(ptr align 8 %12, ptr align 8 %6, i64 16, i1 false), !tbaa.struct !16
  %22 = getelementptr inbounds nuw { ptr, i64 }, ptr %12, i32 0, i32 0
  %23 = load ptr, ptr %22, align 8
  %24 = getelementptr inbounds nuw { ptr, i64 }, ptr %12, i32 0, i32 1
  %25 = load i64, ptr %24, align 8
  call void @_ZN5boost4urls6detail12segment_iterC1ENS_4core17basic_string_viewIcEE(ptr noundef nonnull align 8 dereferenceable(46) %11, ptr %23, i64 %25) #11
  invoke void @_ZN5boost4urls8url_base13edit_segmentsERKNS0_6detail18segments_iter_implES5_ONS2_17any_segments_iterEi(ptr dead_on_unwind writable sret(%"struct.boost::urls::detail::segments_iter_impl") align 8 %8, ptr noundef nonnull align 8 dereferenceable(216) %19, ptr noundef nonnull align 8 dereferenceable(104) %20, ptr noundef nonnull align 8 dereferenceable(104) %21, ptr noundef nonnull align 8 dereferenceable(45) %11, i32 noundef -1)
          to label %26 unwind label %27

26:                                               ; preds = %5
  call void @_ZN5boost4urls13segments_base8iteratorC2ERKNS0_6detail18segments_iter_implE(ptr noundef nonnull align 8 dereferenceable(104) %0, ptr noundef nonnull align 8 dereferenceable(104) %8) #11
  call void @_ZN5boost4urls6detail17any_segments_iterD2Ev(ptr noundef nonnull align 8 dereferenceable(46) %11) #11
  call void @llvm.lifetime.end.p0(i64 48, ptr %11) #11
  call void @llvm.lifetime.end.p0(i64 104, ptr %9) #11
  call void @llvm.lifetime.end.p0(i64 104, ptr %8) #11
  ret void

27:                                               ; preds = %5
  %28 = landingpad { ptr, i32 }
          cleanup
  %29 = extractvalue { ptr, i32 } %28, 0
  store ptr %29, ptr %13, align 8
  %30 = extractvalue { ptr, i32 } %28, 1
  store i32 %30, ptr %14, align 4
  call void @_ZN5boost4urls6detail17any_segments_iterD2Ev(ptr noundef nonnull align 8 dereferenceable(46) %11) #11
  call void @llvm.lifetime.end.p0(i64 48, ptr %11) #11
  call void @llvm.lifetime.end.p0(i64 104, ptr %9) #11
  call void @llvm.lifetime.end.p0(i64 104, ptr %8) #11
  br label %31

31:                                               ; preds = %27
  %32 = load ptr, ptr %13, align 8
  %33 = load i32, ptr %14, align 4
  %34 = insertvalue { ptr, i32 } poison, ptr %32, 0
  %35 = insertvalue { ptr, i32 } %34, i32 %33, 1
  resume { ptr, i32 } %35
}